target datalayout = "e-m:e-p270:32:32-p271:32:32-p272:64:64-i64:64-i128:128-f80:128-n8:16:32:64-S128"
target triple = "x86_64-unknown-linux-gnu"

%struct.q_obj_x_blockdev_change_arg = type { ptr, ptr, ptr }

@.str.174 = private unnamed_addr constant [7 x i8] c"parent\00", align 1
@.str.190 = private unnamed_addr constant [5 x i8] c"node\00", align 1
@.str.213 = private unnamed_addr constant [6 x i8] c"child\00", align 1

; Function Attrs: nounwind sspstrong uwtable
define dso_local zeroext i1 @visit_type_q_obj_x_blockdev_change_arg_members(ptr noundef %v, ptr noundef %obj, ptr noundef %errp) #0 {
entry:
  %retval = alloca i1, align 1
  %v.addr = alloca ptr, align 8
  %obj.addr = alloca ptr, align 8
  %errp.addr = alloca ptr, align 8
  %has_child = alloca i8, align 1
  %has_node = alloca i8, align 1
  store ptr %v, ptr %v.addr, align 8
  store ptr %obj, ptr %obj.addr, align 8
  store ptr %errp, ptr %errp.addr, align 8
  %0 = load ptr, ptr %obj.addr, align 8
  %child = getelementptr inbounds %struct.q_obj_x_blockdev_change_arg, ptr %0, i32 0, i32 1
  %1 = load ptr, ptr %child, align 8
  %tobool = icmp ne ptr %1, null
  %lnot = xor i1 %tobool, true
  %lnot1 = xor i1 %lnot, true
  %frombool = zext i1 %lnot1 to i8
  store i8 %frombool, ptr %has_child, align 1
  %2 = load ptr, ptr %obj.addr, align 8
  %node = getelementptr inbounds %struct.q_obj_x_blockdev_change_arg, ptr %2, i32 0, i32 2
  %3 = load ptr, ptr %node, align 8
  %tobool2 = icmp ne ptr %3, null
  %lnot3 = xor i1 %tobool2, true
  %lnot4 = xor i1 %lnot3, true
  %frombool5 = zext i1 %lnot4 to i8
  store i8 %frombool5, ptr %has_node, align 1
  %4 = load ptr, ptr %v.addr, align 8
  %5 = load ptr, ptr %obj.addr, align 8
  %parent = getelementptr inbounds %struct.q_obj_x_blockdev_change_arg, ptr %5, i32 0, i32 0
  %6 = load ptr, ptr %errp.addr, align 8
  %call = call zeroext i1 @visit_type_str(ptr noundef %4, ptr noundef @.str.174, ptr noundef %parent, ptr noundef %6)
  br i1 %call, label %if.end, label %if.then

if.then:                                          ; preds = %entry
  store i1 false, ptr %retval, align 1
  br label %return

if.end:                                           ; preds = %entry
  %7 = load ptr, ptr %v.addr, align 8
  %call6 = call zeroext i1 @visit_optional(ptr noundef %7, ptr noundef @.str.213, ptr noundef %has_child)
  br i1 %call6, label %if.then7, label %if.end12

if.then7:                                         ; preds = %if.end
  %8 = load ptr, ptr %v.addr, align 8
  %9 = load ptr, ptr %obj.addr, align 8
  %child8 = getelementptr inbounds %struct.q_obj_x_blockdev_change_arg, ptr %9, i32 0, i32 1
  %10 = load ptr, ptr %errp.addr, align 8
  %call9 = call zeroext i1 @visit_type_str(ptr noundef %8, ptr noundef @.str.213, ptr noundef %child8, ptr noundef %10)
  br i1 %call9, label %if.end11, label %if.then10

if.then10:                                        ; preds = %if.then7
  store i1 false, ptr %retval, align 1
  br label %return

if.end11:                                         ; preds = %if.then7
  br label %if.end12

if.end12:                                         ; preds = %if.end11, %if.end
  %11 = load ptr, ptr %v.addr, align 8
  %call13 = call zeroext i1 @visit_optional(ptr noundef %11, ptr noundef @.str.190, ptr noundef %has_node)
  br i1 %call13, label %if.then14, label %if.end19

if.then14:                                        ; preds = %if.end12
  %12 = load ptr, ptr %v.addr, align 8
  %13 = load ptr, ptr %obj.addr, align 8
  %node15 = getelementptr inbounds %struct.q_obj_x_blockdev_change_arg, ptr %13, i32 0, i32 2
  %14 = load ptr, ptr %errp.addr, align 8
  %call16 = call zeroext i1 @visit_type_str(ptr noundef %12, ptr noundef @.str.190, ptr noundef %node15, ptr noundef %14)
  br i1 %call16, label %if.end18, label %if.then17

if.then17:                                        ; preds = %if.then14
  store i1 false, ptr %retval, align 1
  br label %return

if.end18:                                         ; preds = %if.then14
  br label %if.end19

if.end19:                                         ; preds = %if.end18, %if.end12
  store i1 true, ptr %retval, align 1
  br label %return

return:                                           ; preds = %if.end19, %if.then17, %if.then10, %if.then
  %15 = load i1, ptr %retval, align 1
  ret i1 %15
}