; Function Attrs: nounwind sspstrong uwtable
define dso_local noundef zeroext i1 @visit_type_q_obj_x_blockdev_change_arg_members(ptr noundef %v, ptr noundef %obj, ptr noundef %errp) local_unnamed_addr #0 {
entry:
  %has_child = alloca i8, align 1
  %has_node = alloca i8, align 1
  %child = getelementptr inbounds nuw i8, ptr %obj, i64 8
  %0 = load ptr, ptr %child, align 8
  %tobool = icmp ne ptr %0, null
  %frombool = zext i1 %tobool to i8
  store i8 %frombool, ptr %has_child, align 1
  %node = getelementptr inbounds nuw i8, ptr %obj, i64 16
  %1 = load ptr, ptr %node, align 8
  %tobool2 = icmp ne ptr %1, null
  %frombool5 = zext i1 %tobool2 to i8
  store i8 %frombool5, ptr %has_node, align 1
  %call = tail call zeroext i1 @visit_type_str(ptr noundef %v, ptr noundef nonnull @.str.174, ptr noundef %obj, ptr noundef %errp) #5
  br i1 %call, label %if.end, label %return

if.end:                                           ; preds = %entry
  %call6 = call zeroext i1 @visit_optional(ptr noundef %v, ptr noundef nonnull @.str.213, ptr noundef nonnull %has_child) #5
  br i1 %call6, label %if.then7, label %if.end12

if.then7:                                         ; preds = %if.end
  %call9 = call zeroext i1 @visit_type_str(ptr noundef %v, ptr noundef nonnull @.str.213, ptr noundef nonnull %child, ptr noundef %errp) #5
  br i1 %call9, label %if.end12, label %return

if.end12:                                         ; preds = %if.then7, %if.end
  %call13 = call zeroext i1 @visit_optional(ptr noundef %v, ptr noundef nonnull @.str.190, ptr noundef nonnull %has_node) #5
  br i1 %call13, label %if.then14, label %if.end19

if.then14:                                        ; preds = %if.end12
  %call16 = call zeroext i1 @visit_type_str(ptr noundef %v, ptr noundef nonnull @.str.190, ptr noundef nonnull %node, ptr noundef %errp) #5
  br i1 %call16, label %if.end19, label %return

if.end19:                                         ; preds = %if.then14, %if.end12
  br label %return

return:                                           ; preds = %if.then14, %if.then7, %entry, %if.end19
  %retval.0 = phi i1 [ true, %if.end19 ], [ false, %entry ], [ false, %if.then7 ], [ false, %if.then14 ]
  ret i1 %retval.0
}